; Function Attrs: mustprogress uwtable
define hidden noundef ptr @_ZN18OpenImageIO_v2_6_03pvt17TextureSystemImpl9imagespecENS_7ustringEi(ptr noundef nonnull align 8 dereferenceable(184) %this, ptr nocapture noundef readonly %filename, i32 noundef %subimage) unnamed_addr #5 align 2 personality ptr @__gxx_personality_v0 {
entry:
  %agg.tmp = alloca %"class.OpenImageIO_v2_6_0::ustring", align 8
  %ref.tmp = alloca %"class.std::__cxx11::basic_string", align 8
  %m_imagecache = getelementptr inbounds i8, ptr %this, i64 8
  %0 = load ptr, ptr %m_imagecache, align 8
  %1 = load ptr, ptr %filename, align 8
  store ptr %1, ptr %agg.tmp, align 8
  %call = call noundef ptr @_ZN18OpenImageIO_v2_6_03pvt14ImageCacheImpl9imagespecENS_7ustringEiib(ptr noundef nonnull align 64 dereferenceable(25280) %0, ptr noundef nonnull %agg.tmp, i32 noundef %subimage, i32 noundef 0, i1 noundef zeroext false)
  %tobool.not = icmp eq ptr %call, null
  br i1 %tobool.not, label %if.then, label %if.end

if.then:                                          ; preds = %entry
  %2 = load ptr, ptr %m_imagecache, align 8
  call void @_ZNK18OpenImageIO_v2_6_03pvt14ImageCacheImpl8geterrorB5cxx11Eb(ptr nonnull sret(%"class.std::__cxx11::basic_string") align 8 %ref.tmp, ptr noundef nonnull align 64 dereferenceable(25280) %2, i1 noundef zeroext true)
  invoke void @_ZNK18OpenImageIO_v2_6_03pvt17TextureSystemImpl5errorIJNSt7__cxx1112basic_stringIcSt11char_traitsIcESaIcEEEEEEvPKcDpRKT_(ptr noundef nonnull align 8 dereferenceable(184) %this, ptr noundef nonnull @.str.50, ptr noundef nonnull align 8 dereferenceable(32) %ref.tmp)
          to label %invoke.cont4 unwind label %lpad3

invoke.cont4:                                     ; preds = %if.then
  call void @_ZNSt7__cxx1112basic_stringIcSt11char_traitsIcESaIcEED1Ev(ptr noundef nonnull align 8 dereferenceable(32) %ref.tmp) #30
  br label %if.end

lpad3:                                            ; preds = %if.then
  %3 = landingpad { ptr, i32 }
          cleanup
  call void @_ZNSt7__cxx1112basic_stringIcSt11char_traitsIcESaIcEED1Ev(ptr noundef nonnull align 8 dereferenceable(32) %ref.tmp) #30
  resume { ptr, i32 } %3

if.end:                                           ; preds = %invoke.cont4, %entry
  ret ptr %call
}